; Function Attrs: nounwind uwtable
define hidden range(i32 -1, 1) i32 @output_pdf(ptr noundef %0, ptr noundef %1) local_unnamed_addr #0 {
  %3 = alloca %struct.lstopo_cairo_output, align 8
  call void @llvm.lifetime.start.p0(i64 24, ptr nonnull %3) #13
  %4 = getelementptr inbounds nuw i8, ptr %0, i64 32
  %5 = load i32, ptr %4, align 8, !tbaa !96
  %6 = tail call noalias ptr @open_output(ptr noundef %1, i32 noundef %5) #13
  %.not = icmp eq ptr %6, null
  br i1 %.not, label %7, label %13

7:                                                ; preds = %2
  %8 = load ptr, ptr @stderr, align 8, !tbaa !26
  %9 = tail call ptr @__errno_location() #17
  %10 = load i32, ptr %9, align 4, !tbaa !97
  %11 = tail call ptr @strerror(i32 noundef %10) #13
  %12 = tail call i32 (ptr, ptr, ...) @fprintf(ptr noundef %8, ptr noundef nonnull @.str.22, ptr noundef %1, ptr noundef %11) #18
  br label %57

13:                                               ; preds = %2
  %14 = getelementptr inbounds nuw i8, ptr %3, i64 8
  call void @llvm.memset.p0.i64(ptr noundef nonnull align 8 dereferenceable(24) %14, i8 0, i64 16, i1 false)
  store ptr %0, ptr %3, align 8, !tbaa !4
  %15 = getelementptr inbounds nuw i8, ptr %0, i64 1584
  store ptr %3, ptr %15, align 8, !tbaa !12
  %16 = getelementptr inbounds nuw i8, ptr %0, i64 1600
  store ptr @pdf_draw_methods, ptr %16, align 8, !tbaa !25
  %17 = getelementptr inbounds nuw i8, ptr %0, i64 24
  store ptr %6, ptr %17, align 8, !tbaa !98
  %18 = call ptr @cairo_pdf_surface_create_for_stream(ptr noundef null, ptr noundef null, double noundef 1.000000e+00, double noundef 1.000000e+00) #13
  %19 = getelementptr inbounds nuw i8, ptr %3, i64 8
  store ptr %18, ptr %19, align 8, !tbaa !79
  %20 = getelementptr inbounds nuw i8, ptr %0, i64 1608
  store i32 0, ptr %20, align 8, !tbaa !49
  %21 = load ptr, ptr %3, align 8, !tbaa !4
  %22 = getelementptr inbounds nuw i8, ptr %21, i64 936
  %23 = load i32, ptr %22, align 8, !tbaa !45
  %24 = call ptr @cairo_create(ptr noundef %18) #13
  %25 = getelementptr inbounds nuw i8, ptr %3, i64 16
  store ptr %24, ptr %25, align 8, !tbaa !55
  %26 = uitofp i32 %23 to double
  call void @cairo_set_font_size(ptr noundef %24, double noundef %26) #13
  %27 = load ptr, ptr %3, align 8, !tbaa !4
  %28 = getelementptr inbounds nuw i8, ptr %27, i64 944
  %29 = load i32, ptr %28, align 8, !tbaa !56
  %30 = uitofp i32 %29 to double
  call void @cairo_set_line_width(ptr noundef %24, double noundef %30) #13
  %31 = load ptr, ptr %3, align 8, !tbaa !4
  call void @output_draw(ptr noundef %31) #13
  call void @cairo_show_page(ptr noundef %24) #13
  call void @cairo_destroy(ptr noundef %24) #13
  store ptr null, ptr %25, align 8, !tbaa !55
  store i32 1, ptr %20, align 8, !tbaa !49
  call void @cairo_surface_destroy(ptr noundef %18) #13
  %32 = load ptr, ptr %17, align 8, !tbaa !98
  %33 = getelementptr inbounds nuw i8, ptr %0, i64 1612
  %34 = load i32, ptr %33, align 4, !tbaa !57
  %35 = uitofp i32 %34 to double
  %36 = getelementptr inbounds nuw i8, ptr %0, i64 1616
  %37 = load i32, ptr %36, align 8, !tbaa !58
  %38 = uitofp i32 %37 to double
  %39 = call ptr @cairo_pdf_surface_create_for_stream(ptr noundef nonnull @topo_cairo_write, ptr noundef %32, double noundef %35, double noundef %38) #13
  store ptr %39, ptr %19, align 8, !tbaa !79
  call void @declare_colors(ptr noundef nonnull %0) #13
  call void @lstopo_prepare_custom_styles(ptr noundef nonnull %0) #13
  %40 = load ptr, ptr %3, align 8, !tbaa !4
  %41 = getelementptr inbounds nuw i8, ptr %40, i64 936
  %42 = load i32, ptr %41, align 8, !tbaa !45
  %43 = load ptr, ptr %19, align 8, !tbaa !79
  %44 = call ptr @cairo_create(ptr noundef %43) #13
  store ptr %44, ptr %25, align 8, !tbaa !55
  %45 = uitofp i32 %42 to double
  call void @cairo_set_font_size(ptr noundef %44, double noundef %45) #13
  %46 = load ptr, ptr %3, align 8, !tbaa !4
  %47 = getelementptr inbounds nuw i8, ptr %46, i64 944
  %48 = load i32, ptr %47, align 8, !tbaa !56
  %49 = uitofp i32 %48 to double
  call void @cairo_set_line_width(ptr noundef %44, double noundef %49) #13
  %50 = load ptr, ptr %3, align 8, !tbaa !4
  call void @output_draw(ptr noundef %50) #13
  call void @cairo_show_page(ptr noundef %44) #13
  call void @cairo_destroy(ptr noundef %44) #13
  store ptr null, ptr %25, align 8, !tbaa !55
  %51 = load ptr, ptr %19, align 8, !tbaa !79
  call void @cairo_surface_flush(ptr noundef %51) #13
  %52 = load ptr, ptr %19, align 8, !tbaa !79
  call void @cairo_surface_destroy(ptr noundef %52) #13
  %53 = load ptr, ptr @stdout, align 8, !tbaa !26
  %.not23 = icmp eq ptr %6, %53
  br i1 %.not23, label %56, label %54

54:                                               ; preds = %13
  %55 = call i32 @fclose(ptr noundef nonnull %6)
  br label %56

56:                                               ; preds = %54, %13
  call void @destroy_colors(ptr noundef nonnull %0) #13
  br label %57

57:                                               ; preds = %56, %7
  %.0 = phi i32 [ 0, %56 ], [ -1, %7 ]
  call void @llvm.lifetime.end.p0(i64 24, ptr nonnull %3) #13
  ret i32 %.0
}